; Function Attrs: mustprogress uwtable
define noundef ptr @_ZN11OpenImageIO6v3_1_025hdr_output_imageio_createEv() local_unnamed_addr #5 personality ptr @__gxx_personality_v0 {
  %1 = tail call noundef ptr @_ZN11OpenImageIO6v3_1_011ImageOutputnwEm(i64 noundef 232)
  invoke void @_ZN11OpenImageIO6v3_1_011ImageOutputC2Ev(ptr noundef nonnull align 8 dereferenceable(232) %1)
          to label %.noexc unwind label %20

.noexc:                                           ; preds = %0
  store ptr getelementptr inbounds nuw inrange(-16, 176) (i8, ptr @_ZTVN11OpenImageIO6v3_1_09HdrOutputE, i64 16), ptr %1, align 8, !tbaa !3
  %2 = getelementptr inbounds nuw i8, ptr %1, i64 184
  tail call void @llvm.memset.p0.i64(ptr noundef nonnull align 8 dereferenceable(48) %2, i8 0, i64 48, i1 false)
  invoke void @_ZN11OpenImageIO6v3_1_011ImageOutput13ioproxy_clearEv(ptr noundef nonnull align 8 dereferenceable(232) %1)
          to label %_ZN11OpenImageIO6v3_1_09HdrOutputC2Ev.exit unwind label %3

3:                                                ; preds = %.noexc
  %4 = landingpad { ptr, i32 }
          cleanup
  %5 = getelementptr inbounds nuw i8, ptr %1, i64 208
  %6 = load ptr, ptr %5, align 8, !tbaa !6
  %.not.i.i.i.i = icmp eq ptr %6, null
  br i1 %.not.i.i.i.i, label %_ZNSt6vectorIhSaIhEED2Ev.exit.i, label %7

7:                                                ; preds = %3
  %8 = getelementptr inbounds nuw i8, ptr %1, i64 224
  %9 = load ptr, ptr %8, align 8, !tbaa !11
  %10 = ptrtoint ptr %9 to i64
  %11 = ptrtoint ptr %6 to i64
  %12 = sub i64 %10, %11
  tail call void @_ZdlPvm(ptr noundef nonnull %6, i64 noundef %12) #26
  br label %_ZNSt6vectorIhSaIhEED2Ev.exit.i

_ZNSt6vectorIhSaIhEED2Ev.exit.i:                  ; preds = %7, %3
  %13 = load ptr, ptr %2, align 8, !tbaa !6
  %.not.i.i.i2.i = icmp eq ptr %13, null
  br i1 %.not.i.i.i2.i, label %_ZNSt6vectorIhSaIhEED2Ev.exit3.i, label %14

14:                                               ; preds = %_ZNSt6vectorIhSaIhEED2Ev.exit.i
  %15 = getelementptr inbounds nuw i8, ptr %1, i64 200
  %16 = load ptr, ptr %15, align 8, !tbaa !11
  %17 = ptrtoint ptr %16 to i64
  %18 = ptrtoint ptr %13 to i64
  %19 = sub i64 %17, %18
  tail call void @_ZdlPvm(ptr noundef nonnull %13, i64 noundef %19) #26
  br label %_ZNSt6vectorIhSaIhEED2Ev.exit3.i

_ZNSt6vectorIhSaIhEED2Ev.exit3.i:                 ; preds = %14, %_ZNSt6vectorIhSaIhEED2Ev.exit.i
  tail call void @_ZN11OpenImageIO6v3_1_011ImageOutputD2Ev(ptr noundef nonnull align 8 dereferenceable(232) %1) #25
  br label %.body

_ZN11OpenImageIO6v3_1_09HdrOutputC2Ev.exit:       ; preds = %.noexc
  ret ptr %1

20:                                               ; preds = %0
  %21 = landingpad { ptr, i32 }
          cleanup
  br label %.body

.body:                                            ; preds = %_ZNSt6vectorIhSaIhEED2Ev.exit3.i, %20
  %eh.lpad-body = phi { ptr, i32 } [ %21, %20 ], [ %4, %_ZNSt6vectorIhSaIhEED2Ev.exit3.i ]
  tail call void @_ZN11OpenImageIO6v3_1_011ImageOutputdlEPv(ptr noundef nonnull %1) #25
  resume { ptr, i32 } %eh.lpad-body
}